; Function Attrs: mustprogress nounwind uwtable
define hidden noundef zeroext i1 @_ZN11OptoRuntime27is_deoptimized_caller_frameEP10JavaThread(ptr noundef %0) local_unnamed_addr #0 align 2 {
  %2 = alloca %class.RegisterMap, align 8
  %3 = alloca %class.frame, align 8
  %4 = alloca %class.frame, align 8
  call void @_ZN11RegisterMapC1EP10JavaThreadNS_9UpdateMapENS_13ProcessFramesENS_16WalkContinuationE(ptr noundef nonnull align 8 dereferenceable(4983) %2, ptr noundef %0, i32 noundef 1, i32 noundef 1, i32 noundef 0) #12
  %5 = getelementptr inbounds i8, ptr %0, i64 928
  call void @_ZN15JavaFrameAnchor13make_walkableEv(ptr noundef nonnull align 8 dereferenceable(24) %5) #12, !noalias !9
  call void @_ZN10JavaThread13pd_last_frameEv(ptr dead_on_unwind nonnull writable sret(%class.frame) align 8 %3, ptr noundef nonnull align 8 dereferenceable(1800) %0) #12
  call void @_ZNK5frame10sender_rawEP11RegisterMap(ptr dead_on_unwind nonnull writable sret(%class.frame) align 8 %4, ptr noundef nonnull align 8 dereferenceable(56) %3, ptr noundef nonnull %2)
  %6 = getelementptr inbounds i8, ptr %2, i64 4981
  %7 = load i8, ptr %6, align 1, !noalias !12
  %8 = trunc i8 %7 to i1
  br i1 %8, label %9, label %_ZNK5frame6senderEP11RegisterMap.exit

9:                                                ; preds = %1
  %10 = getelementptr inbounds i8, ptr %2, i64 4968
  %11 = load ptr, ptr %10, align 8, !noalias !12
  %12 = icmp eq ptr %11, null
  br i1 %12, label %_ZNK11RegisterMap7in_contEv.exit.thread.i, label %_ZNK11RegisterMap7in_contEv.exit.i

_ZNK11RegisterMap7in_contEv.exit.i:               ; preds = %9
  %13 = load ptr, ptr %11, align 8
  %.not.i = icmp eq ptr %13, null
  br i1 %.not.i, label %_ZNK11RegisterMap7in_contEv.exit.thread.i, label %_ZNK5frame6senderEP11RegisterMap.exit

_ZNK11RegisterMap7in_contEv.exit.thread.i:        ; preds = %_ZNK11RegisterMap7in_contEv.exit.i, %9
  %14 = getelementptr inbounds i8, ptr %2, i64 4960
  %15 = load ptr, ptr %14, align 8, !noalias !12
  call void @_ZN17StackWatermarkSet12on_iterationEP10JavaThreadRK5frame(ptr noundef %15, ptr noundef nonnull align 8 dereferenceable(56) %4) #12
  br label %_ZNK5frame6senderEP11RegisterMap.exit

_ZNK5frame6senderEP11RegisterMap.exit:            ; preds = %1, %_ZNK11RegisterMap7in_contEv.exit.i, %_ZNK11RegisterMap7in_contEv.exit.thread.i
  %16 = call noundef zeroext i1 @_ZNK5frame20is_deoptimized_frameEv(ptr noundef nonnull align 8 dereferenceable(56) %4) #12
  ret i1 %16
}